target datalayout = "e-m:e-p270:32:32-p271:32:32-p272:64:64-i64:64-i128:128-f80:128-n8:16:32:64-S128"
target triple = "x86_64-pc-linux-gnu"

%struct.lean_object = type { i32, i32 }
%struct.lean_ctor_object = type { %struct.lean_object, [0 x ptr] }

; Function Attrs: inlinehint nounwind uwtable
define internal ptr @lean_to_ctor(ptr noundef %0) #2 {
  %2 = alloca ptr, align 8
  store ptr %0, ptr %2, align 8, !tbaa !4
  %3 = load ptr, ptr %2, align 8, !tbaa !4
  ret ptr %3
}

; Function Attrs: inlinehint nounwind uwtable
define internal ptr @lean_ctor_obj_cptr(ptr noundef %0) #2 {
  %2 = alloca ptr, align 8
  store ptr %0, ptr %2, align 8, !tbaa !4
  %3 = load ptr, ptr %2, align 8, !tbaa !4
  %4 = call ptr @lean_to_ctor(ptr noundef %3)
  %5 = getelementptr inbounds nuw %struct.lean_ctor_object, ptr %4, i32 0, i32 1
  %6 = getelementptr inbounds [0 x ptr], ptr %5, i64 0, i64 0
  ret ptr %6
}

; Function Attrs: inlinehint nounwind uwtable
define internal zeroext i8 @lean_ctor_get_uint8(ptr noundef %0, i32 noundef %1) #2 {
  %3 = alloca ptr, align 8
  %4 = alloca i32, align 4
  store ptr %0, ptr %3, align 8, !tbaa !4
  store i32 %1, ptr %4, align 4, !tbaa !9
  %5 = load ptr, ptr %3, align 8, !tbaa !4
  %6 = call ptr @lean_ctor_obj_cptr(ptr noundef %5)
  %7 = load i32, ptr %4, align 4, !tbaa !9
  %8 = zext i32 %7 to i64
  %9 = getelementptr inbounds nuw i8, ptr %6, i64 %8
  %10 = load i8, ptr %9, align 1, !tbaa !8
  ret i8 %10
}

; Function Attrs: nounwind uwtable
define zeroext i8 @l_Lake_BuildConfig_showProgress(ptr noundef %0) #0 {
  %2 = alloca i8, align 1
  %3 = alloca ptr, align 8
  %4 = alloca i8, align 1
  %5 = alloca i8, align 1
  %6 = alloca i8, align 1
  %7 = alloca i8, align 1
  %8 = alloca i8, align 1
  %9 = alloca i32, align 4
  %10 = alloca i8, align 1
  %11 = alloca i8, align 1
  %12 = alloca i8, align 1
  %13 = alloca i8, align 1
  %14 = alloca i8, align 1
  %15 = alloca i8, align 1
  %16 = alloca i8, align 1
  %17 = alloca i8, align 1
  %18 = alloca i8, align 1
  store ptr %0, ptr %3, align 8, !tbaa !4
  br label %19

19:                                               ; preds = %1
  call void @llvm.lifetime.start.p0(i64 1, ptr %4) #7
  %20 = load ptr, ptr %3, align 8, !tbaa !4
  %21 = call zeroext i8 @lean_ctor_get_uint8(ptr noundef %20, i32 noundef 10)
  store i8 %21, ptr %4, align 1, !tbaa !8
  %22 = load i8, ptr %4, align 1, !tbaa !8
  %23 = zext i8 %22 to i32
  %24 = icmp eq i32 %23, 0
  br i1 %24, label %25, label %39

25:                                               ; preds = %19
  call void @llvm.lifetime.start.p0(i64 1, ptr %5) #7
  call void @llvm.lifetime.start.p0(i64 1, ptr %6) #7
  call void @llvm.lifetime.start.p0(i64 1, ptr %7) #7
  %26 = load ptr, ptr %3, align 8, !tbaa !4
  %27 = call zeroext i8 @lean_ctor_get_uint8(ptr noundef %26, i32 noundef 11)
  store i8 %27, ptr %5, align 1, !tbaa !8
  store i8 0, ptr %6, align 1, !tbaa !8
  %28 = load i8, ptr %5, align 1, !tbaa !8
  %29 = load i8, ptr %6, align 1, !tbaa !8
  %30 = call zeroext i8 @l_Lake_instDecidableEqVerbosity(i8 noundef zeroext %28, i8 noundef zeroext %29)
  store i8 %30, ptr %7, align 1, !tbaa !8
  %31 = load i8, ptr %7, align 1, !tbaa !8
  %32 = zext i8 %31 to i32
  %33 = icmp eq i32 %32, 0
  br i1 %33, label %34, label %36

34:                                               ; preds = %25
  call void @llvm.lifetime.start.p0(i64 1, ptr %8) #7
  store i8 1, ptr %8, align 1, !tbaa !8
  %35 = load i8, ptr %8, align 1, !tbaa !8
  store i8 %35, ptr %2, align 1
  store i32 1, ptr %9, align 4
  call void @llvm.lifetime.end.p0(i64 1, ptr %8) #7
  br label %38

36:                                               ; preds = %25
  call void @llvm.lifetime.start.p0(i64 1, ptr %10) #7
  store i8 0, ptr %10, align 1, !tbaa !8
  %37 = load i8, ptr %10, align 1, !tbaa !8
  store i8 %37, ptr %2, align 1
  store i32 1, ptr %9, align 4
  call void @llvm.lifetime.end.p0(i64 1, ptr %10) #7
  br label %38

38:                                               ; preds = %36, %34
  call void @llvm.lifetime.end.p0(i64 1, ptr %7) #7
  call void @llvm.lifetime.end.p0(i64 1, ptr %6) #7
  call void @llvm.lifetime.end.p0(i64 1, ptr %5) #7
  br label %63

39:                                               ; preds = %19
  call void @llvm.lifetime.start.p0(i64 1, ptr %11) #7
  call void @llvm.lifetime.start.p0(i64 1, ptr %12) #7
  call void @llvm.lifetime.start.p0(i64 1, ptr %13) #7
  %40 = load ptr, ptr %3, align 8, !tbaa !4
  %41 = call zeroext i8 @lean_ctor_get_uint8(ptr noundef %40, i32 noundef 11)
  store i8 %41, ptr %11, align 1, !tbaa !8
  store i8 2, ptr %12, align 1, !tbaa !8
  %42 = load i8, ptr %11, align 1, !tbaa !8
  %43 = load i8, ptr %12, align 1, !tbaa !8
  %44 = call zeroext i8 @l_Lake_instDecidableEqVerbosity(i8 noundef zeroext %42, i8 noundef zeroext %43)
  store i8 %44, ptr %13, align 1, !tbaa !8
  %45 = load i8, ptr %13, align 1, !tbaa !8
  %46 = zext i8 %45 to i32
  %47 = icmp eq i32 %46, 0
  br i1 %47, label %48, label %60

48:                                               ; preds = %39
  call void @llvm.lifetime.start.p0(i64 1, ptr %14) #7
  call void @llvm.lifetime.start.p0(i64 1, ptr %15) #7
  store i8 0, ptr %14, align 1, !tbaa !8
  %49 = load i8, ptr %11, align 1, !tbaa !8
  %50 = load i8, ptr %14, align 1, !tbaa !8
  %51 = call zeroext i8 @l_Lake_instDecidableEqVerbosity(i8 noundef zeroext %49, i8 noundef zeroext %50)
  store i8 %51, ptr %15, align 1, !tbaa !8
  %52 = load i8, ptr %15, align 1, !tbaa !8
  %53 = zext i8 %52 to i32
  %54 = icmp eq i32 %53, 0
  br i1 %54, label %55, label %57

55:                                               ; preds = %48
  call void @llvm.lifetime.start.p0(i64 1, ptr %16) #7
  store i8 1, ptr %16, align 1, !tbaa !8
  %56 = load i8, ptr %16, align 1, !tbaa !8
  store i8 %56, ptr %2, align 1
  store i32 1, ptr %9, align 4
  call void @llvm.lifetime.end.p0(i64 1, ptr %16) #7
  br label %59

57:                                               ; preds = %48
  call void @llvm.lifetime.start.p0(i64 1, ptr %17) #7
  store i8 0, ptr %17, align 1, !tbaa !8
  %58 = load i8, ptr %17, align 1, !tbaa !8
  store i8 %58, ptr %2, align 1
  store i32 1, ptr %9, align 4
  call void @llvm.lifetime.end.p0(i64 1, ptr %17) #7
  br label %59

59:                                               ; preds = %57, %55
  call void @llvm.lifetime.end.p0(i64 1, ptr %15) #7
  call void @llvm.lifetime.end.p0(i64 1, ptr %14) #7
  br label %62

60:                                               ; preds = %39
  call void @llvm.lifetime.start.p0(i64 1, ptr %18) #7
  store i8 1, ptr %18, align 1, !tbaa !8
  %61 = load i8, ptr %18, align 1, !tbaa !8
  store i8 %61, ptr %2, align 1
  store i32 1, ptr %9, align 4
  call void @llvm.lifetime.end.p0(i64 1, ptr %18) #7
  br label %62

62:                                               ; preds = %60, %59
  call void @llvm.lifetime.end.p0(i64 1, ptr %13) #7
  call void @llvm.lifetime.end.p0(i64 1, ptr %12) #7
  call void @llvm.lifetime.end.p0(i64 1, ptr %11) #7
  br label %63

63:                                               ; preds = %62, %38
  call void @llvm.lifetime.end.p0(i64 1, ptr %4) #7
  %64 = load i8, ptr %2, align 1
  ret i8 %64
}