; Function Attrs: nounwind uwtable
define zeroext range(i8 0, 2) i8 @l_Lake_BuildConfig_showProgress(ptr noundef readonly captures(none) %0) local_unnamed_addr #0 {
  %2 = getelementptr inbounds nuw i8, ptr %0, i64 18
  %3 = load i8, ptr %2, align 1, !tbaa !4
  %4 = icmp eq i8 %3, 0
  %5 = getelementptr inbounds nuw i8, ptr %0, i64 19
  %6 = load i8, ptr %5, align 1, !tbaa !4
  br i1 %4, label %.sink.split, label %7

7:                                                ; preds = %1
  %8 = tail call zeroext i8 @l_Lake_instDecidableEqVerbosity(i8 noundef zeroext %6, i8 noundef zeroext 2) #4
  %9 = icmp eq i8 %8, 0
  br i1 %9, label %.sink.split, label %13

.sink.split:                                      ; preds = %7, %1
  %10 = tail call zeroext i8 @l_Lake_instDecidableEqVerbosity(i8 noundef zeroext %6, i8 noundef zeroext 0) #4
  %11 = icmp eq i8 %10, 0
  %12 = zext i1 %11 to i8
  br label %13

13:                                               ; preds = %.sink.split, %7
  %.1.shrunk = phi i8 [ 1, %7 ], [ %12, %.sink.split ]
  ret i8 %.1.shrunk
}